target datalayout = "e-m:e-p270:32:32-p271:32:32-p272:64:64-i64:64-i128:128-f80:128-n8:16:32:64-S128"
target triple = "x86_64-pc-linux-gnu"

%struct.AVFilterContext = type { ptr, ptr, ptr, ptr, ptr, i32, ptr, ptr, i32, ptr, ptr, i32, i32, ptr, ptr, ptr, ptr, i32, ptr, i32, i32 }
%struct.DejudderContext = type { ptr, ptr, i32, i32, i32, i32, i64, i32, i32 }

; Function Attrs: cold nounwind optsize uwtable
define internal i32 @dejudder_init(ptr noundef %0) #0 {
  %2 = alloca i32, align 4
  %3 = alloca ptr, align 8
  %4 = alloca ptr, align 8
  %5 = alloca i32, align 4
  store ptr %0, ptr %3, align 8, !tbaa !4
  call void @llvm.lifetime.start.p0(i64 8, ptr %4) #7
  %6 = load ptr, ptr %3, align 8, !tbaa !4
  %7 = getelementptr inbounds nuw %struct.AVFilterContext, ptr %6, i32 0, i32 9
  %8 = load ptr, ptr %7, align 8, !tbaa !9
  store ptr %8, ptr %4, align 8, !tbaa !22
  %9 = load ptr, ptr %4, align 8, !tbaa !22
  %10 = getelementptr inbounds nuw %struct.DejudderContext, ptr %9, i32 0, i32 8
  %11 = load i32, ptr %10, align 4, !tbaa !24
  %12 = add nsw i32 %11, 2
  %13 = sext i32 %12 to i64
  %14 = call noalias ptr @av_calloc(i64 noundef %13, i64 noundef 8)
  %15 = load ptr, ptr %4, align 8, !tbaa !22
  %16 = getelementptr inbounds nuw %struct.DejudderContext, ptr %15, i32 0, i32 1
  store ptr %14, ptr %16, align 8, !tbaa !28
  %17 = load ptr, ptr %4, align 8, !tbaa !22
  %18 = getelementptr inbounds nuw %struct.DejudderContext, ptr %17, i32 0, i32 1
  %19 = load ptr, ptr %18, align 8, !tbaa !28
  %20 = icmp ne ptr %19, null
  br i1 %20, label %22, label %21

21:                                               ; preds = %1
  store i32 -12, ptr %2, align 4
  store i32 1, ptr %5, align 4
  br label %39

22:                                               ; preds = %1
  %23 = load ptr, ptr %4, align 8, !tbaa !22
  %24 = getelementptr inbounds nuw %struct.DejudderContext, ptr %23, i32 0, i32 6
  store i64 0, ptr %24, align 8, !tbaa !29
  %25 = load ptr, ptr %4, align 8, !tbaa !22
  %26 = getelementptr inbounds nuw %struct.DejudderContext, ptr %25, i32 0, i32 2
  store i32 0, ptr %26, align 8, !tbaa !30
  %27 = load ptr, ptr %4, align 8, !tbaa !22
  %28 = getelementptr inbounds nuw %struct.DejudderContext, ptr %27, i32 0, i32 3
  store i32 1, ptr %28, align 4, !tbaa !31
  %29 = load ptr, ptr %4, align 8, !tbaa !22
  %30 = getelementptr inbounds nuw %struct.DejudderContext, ptr %29, i32 0, i32 4
  store i32 2, ptr %30, align 8, !tbaa !32
  %31 = load ptr, ptr %4, align 8, !tbaa !22
  %32 = getelementptr inbounds nuw %struct.DejudderContext, ptr %31, i32 0, i32 5
  store i32 3, ptr %32, align 4, !tbaa !33
  %33 = load ptr, ptr %4, align 8, !tbaa !22
  %34 = getelementptr inbounds nuw %struct.DejudderContext, ptr %33, i32 0, i32 8
  %35 = load i32, ptr %34, align 4, !tbaa !24
  %36 = add nsw i32 %35, 2
  %37 = load ptr, ptr %4, align 8, !tbaa !22
  %38 = getelementptr inbounds nuw %struct.DejudderContext, ptr %37, i32 0, i32 7
  store i32 %36, ptr %38, align 8, !tbaa !34
  store i32 0, ptr %2, align 4
  store i32 1, ptr %5, align 4
  br label %39

39:                                               ; preds = %22, %21
  call void @llvm.lifetime.end.p0(i64 8, ptr %4) #7
  %40 = load i32, ptr %2, align 4
  ret i32 %40
}