; Function Attrs: cold nounwind optsize uwtable
define internal range(i32 -12, 1) i32 @dejudder_init(ptr noundef readonly captures(none) %0) #0 {
  %2 = getelementptr inbounds nuw i8, ptr %0, i64 72
  %3 = load ptr, ptr %2, align 8, !tbaa !4
  %4 = getelementptr inbounds nuw i8, ptr %3, i64 44
  %5 = load i32, ptr %4, align 4, !tbaa !20
  %6 = add nsw i32 %5, 2
  %7 = sext i32 %6 to i64
  %8 = tail call noalias ptr @av_calloc(i64 noundef %7, i64 noundef 8) #4
  %9 = getelementptr inbounds nuw i8, ptr %3, i64 8
  store ptr %8, ptr %9, align 8, !tbaa !24
  %.not = icmp eq ptr %8, null
  br i1 %.not, label %19, label %10

10:                                               ; preds = %1
  %11 = getelementptr inbounds nuw i8, ptr %3, i64 32
  store i64 0, ptr %11, align 8, !tbaa !25
  %12 = getelementptr inbounds nuw i8, ptr %3, i64 16
  store i32 0, ptr %12, align 8, !tbaa !26
  %13 = getelementptr inbounds nuw i8, ptr %3, i64 20
  store i32 1, ptr %13, align 4, !tbaa !27
  %14 = getelementptr inbounds nuw i8, ptr %3, i64 24
  store i32 2, ptr %14, align 8, !tbaa !28
  %15 = getelementptr inbounds nuw i8, ptr %3, i64 28
  store i32 3, ptr %15, align 4, !tbaa !29
  %16 = load i32, ptr %4, align 4, !tbaa !20
  %17 = add nsw i32 %16, 2
  %18 = getelementptr inbounds nuw i8, ptr %3, i64 40
  store i32 %17, ptr %18, align 8, !tbaa !30
  br label %19

19:                                               ; preds = %1, %10
  %.0 = phi i32 [ 0, %10 ], [ -12, %1 ]
  ret i32 %.0
}